target datalayout = "e-m:e-p270:32:32-p271:32:32-p272:64:64-i64:64-i128:128-f80:128-n8:16:32:64-S128"
target triple = "x86_64-pc-linux-gnu"

%struct.DdManager = type { %struct.DdNode, ptr, ptr, ptr, ptr, ptr, ptr, ptr, i32, i32, double, double, double, i32, i32, i32, i32, i32, i32, ptr, ptr, %struct.DdSubtable, i32, i32, i32, i32, i32, i32, i32, double, i32, i32, i32, ptr, i64, double, i32, ptr, ptr, ptr, ptr, ptr, ptr, ptr, i32, ptr, ptr, ptr, ptr, ptr, ptr, i32, i32, i32, double, i32, i32, i32, i32, double, double, i32, i32, i32, i32, i32, i32, i32, i32, i32, ptr, ptr, i32, i32, i32, i32, i32, i32, ptr, ptr, ptr, ptr, ptr, ptr, ptr, ptr, i32, i64, i64, i64, i32, i64, i64, double, double, double, double, double, double, i32, ptr, ptr, i64 }
%struct.DdNode = type { i32, i32, ptr, %union.anon, i64 }
%union.anon = type { %struct.DdChildren }
%struct.DdChildren = type { ptr, ptr }
%struct.DdSubtable = type { ptr, i32, i32, i32, i32, i32, i32, i32, i32, i32, i32, i32 }

; Function Attrs: nounwind uwtable
define ptr @cuddAddCmplRecur(ptr noundef %0, ptr noundef %1) #0 {
  %3 = alloca ptr, align 8
  %4 = alloca ptr, align 8
  %5 = alloca ptr, align 8
  %6 = alloca ptr, align 8
  %7 = alloca ptr, align 8
  %8 = alloca ptr, align 8
  %9 = alloca ptr, align 8
  %10 = alloca ptr, align 8
  %11 = alloca ptr, align 8
  %12 = alloca ptr, align 8
  %13 = alloca i32, align 4
  store ptr %0, ptr %4, align 8, !tbaa !3
  store ptr %1, ptr %5, align 8, !tbaa !8
  call void @llvm.lifetime.start.p0(i64 8, ptr %6) #3
  call void @llvm.lifetime.start.p0(i64 8, ptr %7) #3
  call void @llvm.lifetime.start.p0(i64 8, ptr %8) #3
  call void @llvm.lifetime.start.p0(i64 8, ptr %9) #3
  call void @llvm.lifetime.start.p0(i64 8, ptr %10) #3
  call void @llvm.lifetime.start.p0(i64 8, ptr %11) #3
  call void @llvm.lifetime.start.p0(i64 8, ptr %12) #3
  %14 = load ptr, ptr %4, align 8, !tbaa !3
  %15 = getelementptr inbounds nuw %struct.DdManager, ptr %14, i32 0, i32 1
  %16 = load ptr, ptr %15, align 8, !tbaa !30
  store ptr %16, ptr %6, align 8, !tbaa !8
  %17 = load ptr, ptr %4, align 8, !tbaa !3
  %18 = getelementptr inbounds nuw %struct.DdManager, ptr %17, i32 0, i32 2
  %19 = load ptr, ptr %18, align 8, !tbaa !31
  store ptr %19, ptr %7, align 8, !tbaa !8
  %20 = load ptr, ptr %5, align 8, !tbaa !8
  %21 = getelementptr inbounds nuw %struct.DdNode, ptr %20, i32 0, i32 0
  %22 = load i32, ptr %21, align 8, !tbaa !32
  %23 = icmp eq i32 %22, 2147483647
  br i1 %23, label %24, label %32

24:                                               ; preds = %2
  %25 = load ptr, ptr %5, align 8, !tbaa !8
  %26 = load ptr, ptr %7, align 8, !tbaa !8
  %27 = icmp eq ptr %25, %26
  br i1 %27, label %28, label %30

28:                                               ; preds = %24
  %29 = load ptr, ptr %6, align 8, !tbaa !8
  store ptr %29, ptr %3, align 8
  store i32 1, ptr %13, align 4
  br label %120

30:                                               ; preds = %24
  %31 = load ptr, ptr %7, align 8, !tbaa !8
  store ptr %31, ptr %3, align 8
  store i32 1, ptr %13, align 4
  br label %120

32:                                               ; preds = %2
  %33 = load ptr, ptr %4, align 8, !tbaa !3
  %34 = load ptr, ptr %5, align 8, !tbaa !8
  %35 = call ptr @cuddCacheLookup1(ptr noundef %33, ptr noundef @Cudd_addCmpl, ptr noundef %34)
  store ptr %35, ptr %8, align 8, !tbaa !8
  %36 = load ptr, ptr %8, align 8, !tbaa !8
  %37 = icmp ne ptr %36, null
  br i1 %37, label %38, label %40

38:                                               ; preds = %32
  %39 = load ptr, ptr %8, align 8, !tbaa !8
  store ptr %39, ptr %3, align 8
  store i32 1, ptr %13, align 4
  br label %120

40:                                               ; preds = %32
  %41 = load ptr, ptr %5, align 8, !tbaa !8
  %42 = getelementptr inbounds nuw %struct.DdNode, ptr %41, i32 0, i32 3
  %43 = getelementptr inbounds nuw %struct.DdChildren, ptr %42, i32 0, i32 0
  %44 = load ptr, ptr %43, align 8, !tbaa !34
  store ptr %44, ptr %9, align 8, !tbaa !8
  %45 = load ptr, ptr %5, align 8, !tbaa !8
  %46 = getelementptr inbounds nuw %struct.DdNode, ptr %45, i32 0, i32 3
  %47 = getelementptr inbounds nuw %struct.DdChildren, ptr %46, i32 0, i32 1
  %48 = load ptr, ptr %47, align 8, !tbaa !34
  store ptr %48, ptr %10, align 8, !tbaa !8
  %49 = load ptr, ptr %4, align 8, !tbaa !3
  %50 = load ptr, ptr %9, align 8, !tbaa !8
  %51 = call ptr @cuddAddCmplRecur(ptr noundef %49, ptr noundef %50)
  store ptr %51, ptr %11, align 8, !tbaa !8
  %52 = load ptr, ptr %11, align 8, !tbaa !8
  %53 = icmp eq ptr %52, null
  br i1 %53, label %54, label %55

54:                                               ; preds = %40
  store ptr null, ptr %3, align 8
  store i32 1, ptr %13, align 4
  br label %120

55:                                               ; preds = %40
  %56 = load ptr, ptr %11, align 8, !tbaa !8
  %57 = ptrtoint ptr %56 to i64
  %58 = and i64 %57, -2
  %59 = inttoptr i64 %58 to ptr
  %60 = getelementptr inbounds nuw %struct.DdNode, ptr %59, i32 0, i32 1
  %61 = load i32, ptr %60, align 4, !tbaa !35
  %62 = add i32 %61, 1
  store i32 %62, ptr %60, align 4, !tbaa !35
  %63 = load ptr, ptr %4, align 8, !tbaa !3
  %64 = load ptr, ptr %10, align 8, !tbaa !8
  %65 = call ptr @cuddAddCmplRecur(ptr noundef %63, ptr noundef %64)
  store ptr %65, ptr %12, align 8, !tbaa !8
  %66 = load ptr, ptr %12, align 8, !tbaa !8
  %67 = icmp eq ptr %66, null
  br i1 %67, label %68, label %71

68:                                               ; preds = %55
  %69 = load ptr, ptr %4, align 8, !tbaa !3
  %70 = load ptr, ptr %11, align 8, !tbaa !8
  call void @Cudd_RecursiveDeref(ptr noundef %69, ptr noundef %70)
  store ptr null, ptr %3, align 8
  store i32 1, ptr %13, align 4
  br label %120

71:                                               ; preds = %55
  %72 = load ptr, ptr %12, align 8, !tbaa !8
  %73 = ptrtoint ptr %72 to i64
  %74 = and i64 %73, -2
  %75 = inttoptr i64 %74 to ptr
  %76 = getelementptr inbounds nuw %struct.DdNode, ptr %75, i32 0, i32 1
  %77 = load i32, ptr %76, align 4, !tbaa !35
  %78 = add i32 %77, 1
  store i32 %78, ptr %76, align 4, !tbaa !35
  %79 = load ptr, ptr %11, align 8, !tbaa !8
  %80 = load ptr, ptr %12, align 8, !tbaa !8
  %81 = icmp eq ptr %79, %80
  br i1 %81, label %82, label %84

82:                                               ; preds = %71
  %83 = load ptr, ptr %11, align 8, !tbaa !8
  br label %92

84:                                               ; preds = %71
  %85 = load ptr, ptr %4, align 8, !tbaa !3
  %86 = load ptr, ptr %5, align 8, !tbaa !8
  %87 = getelementptr inbounds nuw %struct.DdNode, ptr %86, i32 0, i32 0
  %88 = load i32, ptr %87, align 8, !tbaa !32
  %89 = load ptr, ptr %11, align 8, !tbaa !8
  %90 = load ptr, ptr %12, align 8, !tbaa !8
  %91 = call ptr @cuddUniqueInter(ptr noundef %85, i32 noundef %88, ptr noundef %89, ptr noundef %90)
  br label %92

92:                                               ; preds = %84, %82
  %93 = phi ptr [ %83, %82 ], [ %91, %84 ]
  store ptr %93, ptr %8, align 8, !tbaa !8
  %94 = load ptr, ptr %8, align 8, !tbaa !8
  %95 = icmp eq ptr %94, null
  br i1 %95, label %96, label %101

96:                                               ; preds = %92
  %97 = load ptr, ptr %4, align 8, !tbaa !3
  %98 = load ptr, ptr %11, align 8, !tbaa !8
  call void @Cudd_RecursiveDeref(ptr noundef %97, ptr noundef %98)
  %99 = load ptr, ptr %4, align 8, !tbaa !3
  %100 = load ptr, ptr %12, align 8, !tbaa !8
  call void @Cudd_RecursiveDeref(ptr noundef %99, ptr noundef %100)
  store ptr null, ptr %3, align 8
  store i32 1, ptr %13, align 4
  br label %120

101:                                              ; preds = %92
  %102 = load ptr, ptr %11, align 8, !tbaa !8
  %103 = ptrtoint ptr %102 to i64
  %104 = and i64 %103, -2
  %105 = inttoptr i64 %104 to ptr
  %106 = getelementptr inbounds nuw %struct.DdNode, ptr %105, i32 0, i32 1
  %107 = load i32, ptr %106, align 4, !tbaa !35
  %108 = add i32 %107, -1
  store i32 %108, ptr %106, align 4, !tbaa !35
  %109 = load ptr, ptr %12, align 8, !tbaa !8
  %110 = ptrtoint ptr %109 to i64
  %111 = and i64 %110, -2
  %112 = inttoptr i64 %111 to ptr
  %113 = getelementptr inbounds nuw %struct.DdNode, ptr %112, i32 0, i32 1
  %114 = load i32, ptr %113, align 4, !tbaa !35
  %115 = add i32 %114, -1
  store i32 %115, ptr %113, align 4, !tbaa !35
  %116 = load ptr, ptr %4, align 8, !tbaa !3
  %117 = load ptr, ptr %5, align 8, !tbaa !8
  %118 = load ptr, ptr %8, align 8, !tbaa !8
  call void @cuddCacheInsert1(ptr noundef %116, ptr noundef @Cudd_addCmpl, ptr noundef %117, ptr noundef %118)
  %119 = load ptr, ptr %8, align 8, !tbaa !8
  store ptr %119, ptr %3, align 8
  store i32 1, ptr %13, align 4
  br label %120

120:                                              ; preds = %101, %96, %68, %54, %38, %30, %28
  call void @llvm.lifetime.end.p0(i64 8, ptr %12) #3
  call void @llvm.lifetime.end.p0(i64 8, ptr %11) #3
  call void @llvm.lifetime.end.p0(i64 8, ptr %10) #3
  call void @llvm.lifetime.end.p0(i64 8, ptr %9) #3
  call void @llvm.lifetime.end.p0(i64 8, ptr %8) #3
  call void @llvm.lifetime.end.p0(i64 8, ptr %7) #3
  call void @llvm.lifetime.end.p0(i64 8, ptr %6) #3
  %121 = load ptr, ptr %3, align 8
  ret ptr %121
}