; Function Attrs: nounwind uwtable
define ptr @cuddAddCmplRecur(ptr noundef %0, ptr noundef %1) local_unnamed_addr #0 {
  %3 = load i32, ptr %1, align 8, !tbaa !28
  %4 = icmp eq i32 %3, 2147483647
  br i1 %4, label %5, label %11

5:                                                ; preds = %2
  %6 = getelementptr inbounds nuw i8, ptr %0, i64 48
  %7 = load ptr, ptr %6, align 8, !tbaa !27
  %8 = getelementptr inbounds nuw i8, ptr %0, i64 40
  %9 = load ptr, ptr %8, align 8, !tbaa !26
  %10 = icmp eq ptr %1, %7
  %. = select i1 %10, ptr %9, ptr %7
  br label %48

11:                                               ; preds = %2
  %12 = tail call ptr @cuddCacheLookup1(ptr noundef nonnull %0, ptr noundef nonnull @Cudd_addCmpl, ptr noundef nonnull %1) #3
  %.not = icmp eq ptr %12, null
  br i1 %.not, label %13, label %48

13:                                               ; preds = %11
  %14 = getelementptr inbounds nuw i8, ptr %1, i64 16
  %15 = load ptr, ptr %14, align 8, !tbaa !31
  %16 = getelementptr inbounds nuw i8, ptr %1, i64 24
  %17 = load ptr, ptr %16, align 8, !tbaa !31
  %18 = tail call ptr @cuddAddCmplRecur(ptr noundef nonnull %0, ptr noundef %15)
  %19 = icmp eq ptr %18, null
  br i1 %19, label %48, label %20

20:                                               ; preds = %13
  %21 = ptrtoint ptr %18 to i64
  %22 = and i64 %21, -2
  %23 = inttoptr i64 %22 to ptr
  %24 = getelementptr inbounds nuw i8, ptr %23, i64 4
  %25 = load i32, ptr %24, align 4, !tbaa !32
  %26 = add i32 %25, 1
  store i32 %26, ptr %24, align 4, !tbaa !32
  %27 = tail call ptr @cuddAddCmplRecur(ptr noundef nonnull %0, ptr noundef %17)
  %28 = icmp eq ptr %27, null
  br i1 %28, label %29, label %30

29:                                               ; preds = %20
  tail call void @Cudd_RecursiveDeref(ptr noundef nonnull %0, ptr noundef nonnull %18) #3
  br label %48

30:                                               ; preds = %20
  %31 = ptrtoint ptr %27 to i64
  %32 = and i64 %31, -2
  %33 = inttoptr i64 %32 to ptr
  %34 = getelementptr inbounds nuw i8, ptr %33, i64 4
  %35 = load i32, ptr %34, align 4, !tbaa !32
  %36 = add i32 %35, 1
  store i32 %36, ptr %34, align 4, !tbaa !32
  %37 = icmp eq ptr %18, %27
  br i1 %37, label %.thread, label %38

38:                                               ; preds = %30
  %39 = load i32, ptr %1, align 8, !tbaa !28
  %40 = tail call ptr @cuddUniqueInter(ptr noundef nonnull %0, i32 noundef %39, ptr noundef nonnull %18, ptr noundef nonnull %27) #3
  %41 = icmp eq ptr %40, null
  br i1 %41, label %42, label %.thread

42:                                               ; preds = %38
  tail call void @Cudd_RecursiveDeref(ptr noundef nonnull %0, ptr noundef nonnull %18) #3
  tail call void @Cudd_RecursiveDeref(ptr noundef nonnull %0, ptr noundef nonnull %27) #3
  br label %48

.thread:                                          ; preds = %30, %38
  %43 = phi ptr [ %40, %38 ], [ %18, %30 ]
  %44 = load i32, ptr %24, align 4, !tbaa !32
  %45 = add i32 %44, -1
  store i32 %45, ptr %24, align 4, !tbaa !32
  %46 = load i32, ptr %34, align 4, !tbaa !32
  %47 = add i32 %46, -1
  store i32 %47, ptr %34, align 4, !tbaa !32
  tail call void @cuddCacheInsert1(ptr noundef nonnull %0, ptr noundef nonnull @Cudd_addCmpl, ptr noundef nonnull %1, ptr noundef nonnull %43) #3
  br label %48

48:                                               ; preds = %13, %11, %5, %.thread, %42, %29
  %.0 = phi ptr [ null, %29 ], [ null, %42 ], [ %43, %.thread ], [ %., %5 ], [ %12, %11 ], [ null, %13 ]
  ret ptr %.0
}